; Function Attrs: nounwind sspstrong uwtable
define internal fastcc i64 @io_buffer_read_S64(ptr noundef readonly captures(none) %0, i64 noundef %1, ptr noundef nonnull captures(none) %2) unnamed_addr #0 {
  %4 = load i64, ptr %2, align 8, !tbaa !22
  %5 = add i64 %4, 8
  %6 = icmp ugt i64 %5, %1
  br i1 %6, label %7, label %io_buffer_validate_type.exit

7:                                                ; preds = %3
  %8 = load i64, ptr @rb_eArgError, align 8, !tbaa !22
  tail call void (i64, ptr, ...) @rb_raise(i64 noundef %8, ptr noundef nonnull @.str.138, i64 noundef %5, i64 noundef %1) #26
  unreachable

io_buffer_validate_type.exit:                     ; preds = %3
  %9 = getelementptr i8, ptr %0, i64 %4
  %10 = load i64, ptr %9, align 1
  %11 = tail call noundef i64 @llvm.bswap.i64(i64 %10)
  store i64 %5, ptr %2, align 8, !tbaa !22
  %12 = add i64 %11, 4611686018427387904
  %or.cond.i = icmp sgt i64 %12, -1
  br i1 %or.cond.i, label %13, label %16

13:                                               ; preds = %io_buffer_validate_type.exit
  %14 = shl nsw i64 %11, 1
  %15 = or disjoint i64 %14, 1
  br label %rb_ll2num_inline.exit

16:                                               ; preds = %io_buffer_validate_type.exit
  %17 = tail call i64 @rb_ll2inum(i64 noundef %11) #25
  br label %rb_ll2num_inline.exit

rb_ll2num_inline.exit:                            ; preds = %13, %16
  %.0.i = phi i64 [ %15, %13 ], [ %17, %16 ]
  ret i64 %.0.i
}